target datalayout = "e-m:e-p270:32:32-p271:32:32-p272:64:64-i64:64-i128:128-f80:128-n8:16:32:64-S128"
target triple = "x86_64-unknown-linux-gnu"

; Function Attrs: nounwind sspstrong uwtable
define internal i32 @clz64(i64 noundef %val) #0 {
entry:
  %val.addr = alloca i64, align 8
  store i64 %val, ptr %val.addr, align 8
  %0 = load i64, ptr %val.addr, align 8
  %tobool = icmp ne i64 %0, 0
  br i1 %tobool, label %cond.true, label %cond.false

cond.true:                                        ; preds = %entry
  %1 = load i64, ptr %val.addr, align 8
  %2 = call i64 @llvm.ctlz.i64(i64 %1, i1 true)
  %cast = trunc i64 %2 to i32
  br label %cond.end

cond.false:                                       ; preds = %entry
  br label %cond.end

cond.end:                                         ; preds = %cond.false, %cond.true
  %cond = phi i32 [ %cast, %cond.true ], [ 64, %cond.false ]
  ret i32 %cond
}

; Function Attrs: nounwind sspstrong uwtable
define dso_local i64 @dma_aligned_pow2_mask(i64 noundef %start, i64 noundef %end, i32 noundef %max_addr_bits) #0 {
entry:
  %retval = alloca i64, align 8
  %start.addr = alloca i64, align 8
  %end.addr = alloca i64, align 8
  %max_addr_bits.addr = alloca i32, align 4
  %max_mask = alloca i64, align 8
  %addr_mask = alloca i64, align 8
  %alignment_mask = alloca i64, align 8
  %size_mask = alloca i64, align 8
  %_a9 = alloca i64, align 8
  %_b10 = alloca i64, align 8
  %tmp = alloca i64, align 8
  %_a11 = alloca i64, align 8
  %_b12 = alloca i64, align 8
  %tmp9 = alloca i64, align 8
  store i64 %start, ptr %start.addr, align 8
  store i64 %end, ptr %end.addr, align 8
  store i32 %max_addr_bits, ptr %max_addr_bits.addr, align 4
  store i64 -1, ptr %max_mask, align 8
  %0 = load i64, ptr %end.addr, align 8
  %1 = load i64, ptr %start.addr, align 8
  %sub = sub i64 %0, %1
  store i64 %sub, ptr %addr_mask, align 8
  %2 = load i32, ptr %max_addr_bits.addr, align 4
  %cmp = icmp ne i32 %2, 64
  br i1 %cmp, label %if.then, label %if.end

if.then:                                          ; preds = %entry
  %3 = load i32, ptr %max_addr_bits.addr, align 4
  %sh_prom = zext i32 %3 to i64
  %shl = shl i64 1, %sh_prom
  %sub1 = sub i64 %shl, 1
  store i64 %sub1, ptr %max_mask, align 8
  br label %if.end

if.end:                                           ; preds = %if.then, %entry
  %4 = load i64, ptr %start.addr, align 8
  %tobool = icmp ne i64 %4, 0
  br i1 %tobool, label %cond.true, label %cond.false

cond.true:                                        ; preds = %if.end
  %5 = load i64, ptr %start.addr, align 8
  %6 = load i64, ptr %start.addr, align 8
  %sub2 = sub i64 0, %6
  %and = and i64 %5, %sub2
  %sub3 = sub i64 %and, 1
  br label %cond.end

cond.false:                                       ; preds = %if.end
  %7 = load i64, ptr %max_mask, align 8
  br label %cond.end

cond.end:                                         ; preds = %cond.false, %cond.true
  %cond = phi i64 [ %sub3, %cond.true ], [ %7, %cond.false ]
  store i64 %cond, ptr %alignment_mask, align 8
  %8 = load i64, ptr %alignment_mask, align 8
  store i64 %8, ptr %_a9, align 8
  %9 = load i64, ptr %max_mask, align 8
  store i64 %9, ptr %_b10, align 8
  %10 = load i64, ptr %_a9, align 8
  %11 = load i64, ptr %_b10, align 8
  %cmp4 = icmp ult i64 %10, %11
  br i1 %cmp4, label %cond.true5, label %cond.false6

cond.true5:                                       ; preds = %cond.end
  %12 = load i64, ptr %_a9, align 8
  br label %cond.end7

cond.false6:                                      ; preds = %cond.end
  %13 = load i64, ptr %_b10, align 8
  br label %cond.end7

cond.end7:                                        ; preds = %cond.false6, %cond.true5
  %cond8 = phi i64 [ %12, %cond.true5 ], [ %13, %cond.false6 ]
  store i64 %cond8, ptr %tmp, align 8
  %14 = load i64, ptr %tmp, align 8
  store i64 %14, ptr %alignment_mask, align 8
  %15 = load i64, ptr %addr_mask, align 8
  store i64 %15, ptr %_a11, align 8
  %16 = load i64, ptr %max_mask, align 8
  store i64 %16, ptr %_b12, align 8
  %17 = load i64, ptr %_a11, align 8
  %18 = load i64, ptr %_b12, align 8
  %cmp10 = icmp ult i64 %17, %18
  br i1 %cmp10, label %cond.true11, label %cond.false12

cond.true11:                                      ; preds = %cond.end7
  %19 = load i64, ptr %_a11, align 8
  br label %cond.end13

cond.false12:                                     ; preds = %cond.end7
  %20 = load i64, ptr %_b12, align 8
  br label %cond.end13

cond.end13:                                       ; preds = %cond.false12, %cond.true11
  %cond14 = phi i64 [ %19, %cond.true11 ], [ %20, %cond.false12 ]
  store i64 %cond14, ptr %tmp9, align 8
  %21 = load i64, ptr %tmp9, align 8
  store i64 %21, ptr %size_mask, align 8
  %22 = load i64, ptr %alignment_mask, align 8
  %23 = load i64, ptr %size_mask, align 8
  %cmp15 = icmp ule i64 %22, %23
  br i1 %cmp15, label %if.then16, label %if.else

if.then16:                                        ; preds = %cond.end13
  %24 = load i64, ptr %alignment_mask, align 8
  store i64 %24, ptr %retval, align 8
  br label %return

if.else:                                          ; preds = %cond.end13
  %25 = load i64, ptr %addr_mask, align 8
  %cmp17 = icmp eq i64 %25, -1
  br i1 %cmp17, label %if.then18, label %if.end19

if.then18:                                        ; preds = %if.else
  store i64 -1, ptr %retval, align 8
  br label %return

if.end19:                                         ; preds = %if.else
  %26 = load i64, ptr %addr_mask, align 8
  %add = add i64 %26, 1
  %call = call i32 @clz64(i64 noundef %add)
  %sub20 = sub i32 63, %call
  %sh_prom21 = zext i32 %sub20 to i64
  %shl22 = shl i64 1, %sh_prom21
  %sub23 = sub i64 %shl22, 1
  store i64 %sub23, ptr %retval, align 8
  br label %return

return:                                           ; preds = %if.end19, %if.then18, %if.then16
  %27 = load i64, ptr %retval, align 8
  ret i64 %27
}