; Function Attrs: mustprogress nofree norecurse nosync nounwind sspstrong willreturn memory(none) uwtable
define dso_local i64 @dma_aligned_pow2_mask(i64 noundef %start, i64 noundef %end, i32 noundef %max_addr_bits) local_unnamed_addr #4 {
entry:
  %sub = sub i64 %end, %start
  %cmp.not = icmp eq i32 %max_addr_bits, 64
  %sh_prom = zext nneg i32 %max_addr_bits to i64
  %notmask = shl nsw i64 -1, %sh_prom
  %sub1 = xor i64 %notmask, -1
  %max_mask.0 = select i1 %cmp.not, i64 -1, i64 %sub1
  %tobool.not = icmp eq i64 %start, 0
  %0 = add i64 %start, -1
  %1 = xor i64 %start, -1
  %sub3 = and i64 %0, %1
  %2 = tail call i64 @llvm.umin.i64(i64 %sub3, i64 %max_mask.0)
  %cond8 = select i1 %tobool.not, i64 %max_mask.0, i64 %2
  %cmp15.not = icmp ult i64 %sub, %cond8
  br i1 %cmp15.not, label %if.end19, label %return

if.end19:                                         ; preds = %entry
  %add = add nuw i64 %sub, 1
  %3 = tail call range(i64 0, 65) i64 @llvm.ctlz.i64(i64 range(i64 1, 0) %add, i1 true)
  %sub20 = xor i64 %3, 63
  %notmask15 = shl nsw i64 -1, %sub20
  %sub23 = xor i64 %notmask15, -1
  br label %return

return:                                           ; preds = %entry, %if.end19
  %retval.0 = phi i64 [ %sub23, %if.end19 ], [ %cond8, %entry ]
  ret i64 %retval.0
}